(lp0
F700.0
aF414.0
aF1200.0
aF200.0
aF10.0
aF0.3
aF1.0
aF0.5
aF10.0
aF2.0
aF100.0
aF100.0
aI01
aI01
aF60.0
aI00
aI00
aF5.0
aI01
aI3
aI0
a(lp1
(lp2
F100.0
aF514.0
aa(lp3
F104.96743117175882
aF513.8026728428272
aa(lp4
F109.91999401385826
aF513.2114701314478
aa(lp5
F114.84287887514348
aF512.2287250728689
aa(lp6
F119.72139322989128
aF510.8583161128631
aa(lp7
F124.54101966249685
aF509.10565162951536
aa(lp8
F129.2874731610807
aF506.9776485888251
aa(lp9
F133.94675749390439
aF504.48270524660194
aa(lp10
F138.50522044610292
aF501.6306680043864
aa(lp11
F142.94960769873978
aF498.4327925502015
aa(lp12
F147.2671151375484
aF494.90169943749476
aa(lp13
F151.4454393849214
aF491.05132427757894
aa(lp14
F155.47282635572134
aF486.89686274214114
aa(lp15
F159.33811764528468
aF482.4547105928689
aa(lp16
F163.03079456654734
aF477.74239897486893
aa(lp17
F166.54101966249686
aF472.7785252292473
aa(lp18
F169.8596755301209
aF467.5826794978997
aa(lp19
F172.97840080263182
aF462.17536741017153
aa(lp20
F175.88962314796117
aF456.57792915650725
aa(lp21
F178.58658915329508
aF450.8124552684678
aa(lp22
F181.06339097770922
aF444.90169943749476
aa(lp23
F183.31498966771787
aF438.8689887164855
aa(lp24
F185.33723504372134
aF432.73813145857247
aa(lp25
F187.12688207886868
aF426.5333233564304
aa(lp26
F188.68160370569632
aF420.2790519529313
aa(lp27
F190.0
aF414.0
aa(lp28
F191.0816037056963
aF407.72094804706865
aa(lp29
F191.9268820788687
aF401.46667664356954
aa(lp30
F192.5372350437213
aF395.26186854142753
aa(lp31
F192.91498966771786
aF389.1310112835145
aa(lp32
F193.06339097770922
aF383.09830056250524
aa(lp33
F192.98658915329509
aF377.18754473153217
aa(lp34
F192.68962314796119
aF371.42207084349275
aa(lp35
F192.1784008026318
aF365.82463258982847
aa(lp36
F191.4596755301209
aF360.4173205021003
aa(lp37
F190.54101966249686
aF355.2214747707527
aa(lp38
F189.43079456654732
aF350.257601025131
aa(lp39
F188.1381176452847
aF345.5452894071311
aa(lp40
F186.6728263557213
aF341.10313725785886
aa(lp41
F185.04543938492137
aF336.94867572242106
aa(lp42
F183.2671151375484
aF333.09830056250524
aa(lp43
F181.3496076987398
aF329.5672074497985
aa(lp44
F179.3052204461029
aF326.3693319956136
aa(lp45
F177.14675749390435
aF323.51729475339806
aa(lp46
F174.88747316108066
aF321.02235141117484
aa(lp47
F172.5410196624968
aF318.89434837048464
aa(lp48
F170.12139322989128
aF317.1416838871369
aa(lp49
F167.64287887514348
aF315.7712749271311
aa(lp50
F165.11999401385825
aF314.78852986855225
aa(lp51
F162.56743117175878
aF314.1973271571728
aa(lp52
F159.99999999999997
aF314.0
aa(lp53
F157.4325688282412
aF314.1973271571728
aa(lp54
F154.88000598614175
aF314.78852986855225
aa(lp55
F152.35712112485652
aF315.7712749271311
aa(lp56
F149.87860677010872
aF317.1416838871369
aa(lp57
F147.45898033750314
aF318.89434837048464
aa(lp58
F145.11252683891928
aF321.0223514111749
aa(lp59
F142.85324250609563
aF323.51729475339806
aa(lp60
F140.69477955389706
aF326.36933199561366
aa(lp61
F138.65039230126018
aF329.5672074497985
aa(lp62
F136.73288486245158
aF333.0983005625053
aa(lp63
F134.95456061507858
aF336.9486757224211
aa(lp64
F133.32717364427864
aF341.10313725785886
aa(lp65
F131.8618823547153
aF345.5452894071311
aa(lp66
F130.56920543345265
aF350.25760102513107
aa(lp67
F129.45898033750316
aF355.2214747707527
aa(lp68
F128.54032446987907
aF360.4173205021004
aa(lp69
F127.82159919736816
aF365.82463258982847
aa(lp70
F127.31037685203881
aF371.4220708434928
aa(lp71
F127.01341084670491
aF377.1875447315322
aa(lp72
F126.93660902229078
aF383.09830056250524
aa(lp73
F127.08501033228211
aF389.13101128351457
aa(lp74
F127.46276495627865
aF395.26186854142753
aa(lp75
F128.0731179211313
aF401.46667664356966
aa(lp76
F128.9183962943037
aF407.7209480470687
aa(lp77
F130.0
aF414.0
aa(lp78
F131.31839629430368
aF420.27905195293135
aa(lp79
F132.8731179211313
aF426.5333233564304
aa(lp80
F134.6627649562787
aF432.7381314585725
aa(lp81
F136.68501033228216
aF438.8689887164855
aa(lp82
F138.93660902229078
aF444.9016994374947
aa(lp83
F141.41341084670492
aF450.81245526846783
aa(lp84
F144.11037685203883
aF456.57792915650725
aa(lp85
F147.02159919736818
aF462.1753674101716
aa(lp86
F150.14032446987912
aF467.5826794978997
aa(lp87
F153.4589803375032
aF472.77852522924735
aa(lp88
F156.96920543345266
aF477.742398974869
aa(lp89
F160.6618823547153
aF482.4547105928689
aa(lp90
F164.5271736442787
aF486.8968627421412
aa(lp91
F168.55456061507863
aF491.05132427757894
aa(lp92
F172.73288486245164
aF494.9016994374948
aa(lp93
F177.05039230126022
aF498.4327925502015
aa(lp94
F181.49477955389705
aF501.6306680043864
aa(lp95
F186.05324250609567
aF504.482705246602
aa(lp96
F190.71252683891933
aF506.97764858882516
aa(lp97
F195.4589803375032
aF509.10565162951536
aa(lp98
F200.27860677010872
aF510.8583161128631
aa(lp99
F205.1571211248565
aF512.2287250728689
aa(lp100
F210.08000598614177
aF513.2114701314478
aa(lp101
F215.0325688282412
aF513.8026728428272
aa(lp102
F220.00000000000003
aF514.0
aa(lp103
F224.96743117175882
aF513.8026728428272
aa(lp104
F229.91999401385823
aF513.2114701314478
aa(lp105
F234.8428788751435
aF512.2287250728689
aa(lp106
F239.7213932298913
aF510.8583161128631
aa(lp107
F244.5410196624969
aF509.10565162951536
aa(lp108
F249.2874731610807
aF506.9776485888251
aa(lp109
F253.94675749390436
aF504.48270524660194
aa(lp110
F258.50522044610295
aF501.63066800438634
aa(lp111
F262.9496076987398
aF498.4327925502015
aa(lp112
F267.26711513754844
aF494.9016994374947
aa(lp113
F271.4454393849214
aF491.0513242775789
aa(lp114
F275.47282635572134
aF486.8968627421411
aa(lp115
F279.3381176452847
aF482.4547105928688
aa(lp116
F283.03079456654734
aF477.74239897486893
aa(lp117
F286.54101966249686
aF472.77852522924724
aa(lp118
F289.8596755301209
aF467.5826794978996
aa(lp119
F292.9784008026318
aF462.1753674101715
aa(lp120
F295.8896231479612
aF456.57792915650725
aa(lp121
F298.58658915329505
aF450.8124552684678
aa(lp122
F301.0633909777092
aF444.9016994374947
aa(lp123
F303.31498966771784
aF438.86898871648543
aa(lp124
F305.3372350437213
aF432.7381314585724
aa(lp125
F307.1268820788687
aF426.5333233564304
aa(lp126
F308.68160370569626
aF420.27905195293135
aa(lp127
F310.0
aF413.99999999999994
aa(lp128
F311.0816037056963
aF407.72094804706865
aa(lp129
F311.9268820788687
aF401.4666766435695
aa(lp130
F312.5372350437213
aF395.2618685414275
aa(lp131
F312.91498966771786
aF389.1310112835145
aa(lp132
F313.0633909777092
aF383.0983005625053
aa(lp133
F312.98658915329503
aF377.1875447315321
aa(lp134
F312.68962314796113
aF371.42207084349263
aa(lp135
F312.1784008026318
aF365.8246325898284
aa(lp136
F311.4596755301209
aF360.4173205021003
aa(lp137
F310.54101966249686
aF355.2214747707527
aa(lp138
F309.4307945665473
aF350.25760102513095
aa(lp139
F308.13811764528464
aF345.54528940713107
aa(lp140
F306.6728263557213
aF341.1031372578588
aa(lp141
F305.04543938492134
aF336.94867572242106
aa(lp142
F303.2671151375484
aF333.0983005625053
aa(lp143
F301.34960769873976
aF329.56720744979845
aa(lp144
F299.30522044610285
aF326.3693319956136
aa(lp145
F297.1467574939044
aF323.517294753398
aa(lp146
F294.8874731610806
aF321.02235141117484
aa(lp147
F292.54101966249686
aF318.89434837048464
aa(lp148
F290.1213932298912
aF317.1416838871369
aa(lp149
F287.6428788751434
aF315.7712749271311
aa(lp150
F285.1199940138583
aF314.78852986855225
aa(lp151
F282.56743117175876
aF314.1973271571728
aa(lp152
F280.0
aF314.0
aa(lp153
F277.43256882824113
aF314.1973271571728
aa(lp154
F274.88000598614167
aF314.78852986855225
aa(lp155
F272.3571211248565
aF315.7712749271311
aa(lp156
F269.87860677010866
aF317.1416838871369
aa(lp157
F267.4589803375032
aF318.89434837048464
aa(lp158
F265.1125268389193
aF321.0223514111749
aa(lp159
F262.85324250609557
aF323.51729475339806
aa(lp160
F260.6947795538971
aF326.36933199561366
aa(lp161
F258.6503923012601
aF329.5672074497985
aa(lp162
F256.7328848624516
aF333.09830056250524
aa(lp163
F254.95456061507855
aF336.94867572242117
aa(lp164
F253.32717364427862
aF341.1031372578589
aa(lp165
F251.8618823547153
aF345.5452894071312
aa(lp166
F250.5692054334526
aF350.257601025131
aa(lp167
F249.4589803375031
aF355.2214747707528
aa(lp168
F248.54032446987907
aF360.41732050210044
aa(lp169
F247.82159919736813
aF365.8246325898285
aa(lp170
F247.31037685203884
aF371.42207084349275
aa(lp171
F247.01341084670486
aF377.18754473153217
aa(lp172
F246.93660902229075
aF383.0983005625054
aa(lp173
F247.0850103322821
aF389.1310112835146
aa(lp174
F247.46276495627865
aF395.2618685414276
aa(lp175
F248.07311792113134
aF401.4666766435696
aa(lp176
F248.91839629430365
aF407.72094804706865
aa(lp177
F250.0
aF414.0000000000001
aa(lp178
F251.3183962943037
aF420.27905195293147
aa(lp179
F252.87311792113132
aF426.5333233564305
aa(lp180
F254.6627649562787
aF432.7381314585725
aa(lp181
F256.6850103322821
aF438.8689887164855
aa(lp182
F258.93660902229084
aF444.90169943749487
aa(lp183
F261.41341084670495
aF450.8124552684679
aa(lp184
F264.1103768520388
aF456.5779291565073
aa(lp185
F267.02159919736823
aF462.17536741017153
aa(lp186
F270.14032446987903
aF467.5826794978997
aa(lp187
F273.4589803375032
aF472.7785252292474
aa(lp188
F276.96920543345266
aF477.74239897486905
aa(lp189
F280.6618823547153
aF482.45471059286893
aa(lp190
F284.5271736442787
aF486.8968627421412
aa(lp191
F288.55456061507857
aF491.05132427757894
aa(lp192
F292.73288486245167
aF494.9016994374948
aa(lp193
F297.0503923012602
aF498.43279255020155
aa(lp194
F301.4947795538971
aF501.6306680043864
aa(lp195
F306.05324250609567
aF504.482705246602
aa(lp196
F310.7125268389193
aF506.9776485888251
aa(lp197
F315.45898033750325
aF509.10565162951536
aa(lp198
F320.27860677010875
aF510.8583161128631
aa(lp199
F325.15712112485653
aF512.2287250728689
aa(lp200
F330.08000598614177
aF513.2114701314478
aa(lp201
F335.03256882824115
aF513.8026728428272
aa(lp202
F340.00000000000006
aF514.0
aa(lp203
F344.96743117175885
aF513.8026728428272
aa(lp204
F349.9199940138583
aF513.2114701314478
aa(lp205
F354.8428788751435
aF512.2287250728689
aa(lp206
F359.72139322989125
aF510.8583161128631
aa(lp207
F364.5410196624969
aF509.1056516295153
aa(lp208
F369.2874731610807
aF506.9776485888251
aa(lp209
F373.9467574939044
aF504.48270524660194
aa(lp210
F378.50522044610295
aF501.63066800438634
aa(lp211
F382.9496076987397
aF498.4327925502015
aa(lp212
F387.26711513754844
aF494.9016994374947
aa(lp213
F391.44543938492143
aF491.05132427757883
aa(lp214
F395.47282635572134
aF486.89686274214114
aa(lp215
F399.33811764528474
aF482.4547105928689
aa(lp216
F403.03079456654734
aF477.742398974869
aa(lp217
F406.54101966249686
aF472.7785252292472
aa(lp218
F409.8596755301209
aF467.58267949789956
aa(lp219
F412.9784008026318
aF462.1753674101715
aa(lp220
F415.8896231479611
aF456.57792915650725
aa(lp221
F418.5865891532951
aF450.81245526846783
aa(lp222
F421.0633909777092
aF444.90169943749464
aa(lp223
F423.3149896677179
aF438.8689887164854
aa(lp224
F425.3372350437213
aF432.7381314585724
aa(lp225
F427.1268820788686
aF426.5333233564304
aa(lp226
F428.6816037056963
aF420.2790519529312
aa(lp227
F430.0
aF413.9999999999999
aa(lp228
F431.0816037056963
aF407.7209480470686
aa(lp229
F431.92688207886863
aF401.46667664356954
aa(lp230
F432.5372350437213
aF395.26186854142753
aa(lp231
F432.91498966771786
aF389.13101128351434
aa(lp232
F433.0633909777092
aF383.09830056250513
aa(lp233
F432.98658915329503
aF377.1875447315321
aa(lp234
F432.68962314796113
aF371.4220708434927
aa(lp235
F432.17840080263176
aF365.82463258982847
aa(lp236
F431.4596755301209
aF360.4173205021002
aa(lp237
F430.5410196624968
aF355.2214747707526
aa(lp238
F429.4307945665473
aF350.25760102513095
aa(lp239
F428.13811764528464
aF345.5452894071311
aa(lp240
F426.67282635572127
aF341.10313725785886
aa(lp241
F425.04543938492134
aF336.94867572242094
aa(lp242
F423.26711513754833
aF333.0983005625052
aa(lp243
F421.34960769873976
aF329.56720744979845
aa(lp244
F419.30522044610285
aF326.3693319956136
aa(lp245
F417.1467574939043
aF323.51729475339806
aa(lp246
F414.8874731610806
aF321.0223514111748
aa(lp247
F412.54101966249675
aF318.89434837048464
aa(lp248
F410.1213932298912
aF317.1416838871369
aa(lp249
F407.6428788751434
aF315.7712749271311
aa(lp250
F405.1199940138582
aF314.78852986855225
aa(lp251
F402.5674311717587
aF314.1973271571728
aa(lp252
F399.99999999999994
aF314.0
aa(lp253
F397.43256882824113
aF314.1973271571728
aa(lp254
F394.88000598614167
aF314.78852986855225
aa(lp255
F392.35712112485646
aF315.7712749271311
aa(lp256
F389.8786067701086
aF317.14168388713694
aa(lp257
F387.4589803375031
aF318.8943483704847
aa(lp258
F385.1125268389193
aF321.0223514111749
aa(lp259
F382.85324250609557
aF323.51729475339806
aa(lp260
F380.69477955389704
aF326.36933199561366
aa(lp261
F378.65039230126024
aF329.5672074497985
aa(lp262
F376.73288486245167
aF333.0983005625052
aa(lp263
F374.9545606150785
aF336.9486757224212
aa(lp264
F373.32717364427856
aF341.103137257859
aa(lp265
F371.8618823547152
aF345.5452894071313
aa(lp266
F370.56920543345257
aF350.2576010251311
aa(lp267
F369.45898033750314
aF355.22147477075276
aa(lp268
F368.54032446987907
aF360.41732050210044
aa(lp269
F367.82159919736813
aF365.8246325898285
aa(lp270
F367.3103768520388
aF371.42207084349275
aa(lp271
F367.0134108467049
aF377.18754473153217
aa(lp272
F366.9366090222908
aF383.0983005625052
aa(lp273
F367.0850103322821
aF389.1310112835148
aa(lp274
F367.46276495627865
aF395.26186854142776
aa(lp275
F368.07311792113126
aF401.46667664356977
aa(lp276
F368.9183962943037
aF407.7209480470688
aa(lp277
F370.0
aF414.0000000000001
aa(lp278
F371.3183962943037
aF420.2790519529314
aa(lp279
F372.8731179211313
aF426.53332335643046
aa(lp280
F374.66276495627864
aF432.73813145857247
aa(lp281
F376.68501033228216
aF438.86898871648543
aa(lp282
F378.9366090222907
aF444.9016994374945
aa(lp283
F381.4134108467049
aF450.8124552684679
aa(lp284
F384.11037685203894
aF456.57792915650765
aa(lp285
F387.0215991973682
aF462.17536741017153
aa(lp286
F390.1403244698792
aF467.58267949789996
aa(lp287
F393.45898033750314
aF472.77852522924724
aa(lp288
F396.9692054334527
aF477.74239897486916
aa(lp289
F400.6618823547152
aF482.45471059286876
aa(lp290
F404.5271736442787
aF486.89686274214125
aa(lp291
F408.5545606150785
aF491.0513242775788
aa(lp292
F412.73288486245167
aF494.9016994374948
aa(lp293
F417.0503923012604
aF498.4327925502017
aa(lp294
F421.4947795538971
aF501.6306680043864
aa(lp295
F426.0532425060958
aF504.4827052466021
aa(lp296
F430.7125268389193
aF506.9776485888251
aa(lp297
F435.4589803375033
aF509.1056516295154
aa(lp298
F440.27860677010864
aF510.85831611286306
aa(lp299
F445.15712112485664
aF512.2287250728689
aa(lp300
F450.0800059861416
aF513.2114701314478
aa(lp301
F455.0325688282413
aF513.8026728428272
aa(lp302
F459.99999999999983
aF514.0
aa(lp303
F464.96743117175885
aF513.8026728428272
aa(lp304
F469.91999401385846
aF513.2114701314478
aa(lp305
F474.84287887514347
aF512.2287250728689
aa(lp306
F479.7213932298915
aF510.858316112863
aa(lp307
F484.5410196624968
aF509.10565162951536
aa(lp308
F489.2874731610808
aF506.97764858882505
aa(lp309
F493.9467574939043
aF504.482705246602
aa(lp310
F498.50522044610295
aF501.6306680043863
aa(lp311
F502.9496076987397
aF498.4327925502016
aa(lp312
F507.26711513754844
aF494.9016994374947
aa(lp313
F511.44543938492154
aF491.05132427757866
aa(lp314
F515.4728263557213
aF486.89686274214114
aa(lp315
F519.3381176452848
aF482.4547105928686
aa(lp316
F523.0307945665473
aF477.742398974869
aa(lp317
F526.541019662497
aF472.77852522924707
aa(lp318
F529.8596755301209
aF467.58267949789973
aa(lp319
F532.9784008026319
aF462.17536741017136
aa(lp320
F535.8896231479611
aF456.5779291565074
aa(lp321
F538.5865891532951
aF450.81245526846766
aa(lp322
F541.0633909777091
aF444.901699437495
aa(lp323
F543.3149896677179
aF438.86898871648543
aa(lp324
F545.3372350437213
aF432.73813145857207
aa(lp325
F547.1268820788687
aF426.5333233564304
aa(lp326
F548.6816037056963
aF420.279051952931
aa(lp327
F550.0
aF414.00000000000006
aa(lp328
F551.0816037056962
aF407.7209480470684
aa(lp329
F551.9268820788686
aF401.4666766435697
aa(lp330
F552.5372350437212
aF395.26186854142736
aa(lp331
F552.9149896677179
aF389.13101128351474
aa(lp332
F553.0633909777092
aF383.0983005625052
aa(lp333
F552.986589153295
aF377.18754473153183
aa(lp334
F552.6896231479611
aF371.4220708434927
aa(lp335
F552.1784008026317
aF365.8246325898282
aa(lp336
F551.4596755301209
aF360.4173205021004
aa(lp337
F550.5410196624968
aF355.2214747707525
aa(lp338
F549.4307945665474
aF350.2576010251311
aa(lp339
F548.1381176452846
aF345.545289407131
aa(lp340
F546.6728263557213
aF341.103137257859
aa(lp341
F545.0454393849213
aF336.948675722421
aa(lp342
F543.2671151375482
aF333.09830056250496
aa(lp343
F541.3496076987398
aF329.56720744979845
aa(lp344
F539.3052204461027
aF326.36933199561344
aa(lp345
F537.1467574939044
aF323.51729475339806
aa(lp346
F534.8874731610805
aF321.0223514111747
aa(lp347
F532.5410196624969
aF318.89434837048464
aa(lp348
F530.1213932298912
aF317.1416838871368
aa(lp349
F527.6428788751435
aF315.7712749271312
aa(lp350
F525.1199940138581
aF314.7885298685522
aa(lp351
F522.5674311717589
aF314.1973271571728
aa(lp352
F519.9999999999999
aF314.0
aa(lp353
F517.432568828241
aF314.1973271571729
aa(lp354
F514.8800059861417
aF314.78852986855225
aa(lp355
F512.3571211248562
aF315.7712749271312
aa(lp356
F509.8786067701087
aF317.1416838871369
aa(lp357
F507.458980337503
aF318.89434837048475
aa(lp358
F505.11252683891945
aF321.02235141117484
aa(lp359
F502.8532425060955
aF323.5172947533981
aa(lp360
F500.6947795538971
aF326.36933199561355
aa(lp361
F498.65039230126007
aF329.56720744979856
aa(lp362
F496.7328848624514
aF333.09830056250553
aa(lp363
F494.95456061507866
aF336.9486757224211
aa(lp364
F493.3271736442785
aF341.1031372578591
aa(lp365
F491.86188235471525
aF345.5452894071311
aa(lp366
F490.5692054334525
aF350.2576010251313
aa(lp367
F489.4589803375032
aF355.2214747707526
aa(lp368
F488.54032446987907
aF360.41732050210055
aa(lp369
F487.8215991973682
aF365.82463258982835
aa(lp370
F487.3103768520387
aF371.42207084349286
aa(lp371
F487.0134108467049
aF377.187544731532
aa(lp372
F486.9366090222908
aF383.09830056250536
aa(lp373
F487.08501033228214
aF389.1310112835149
aa(lp374
F487.46276495627865
aF395.2618685414276
aa(lp375
F488.0731179211312
aF401.46667664356994
aa(lp376
F488.91839629430365
aF407.7209480470686
aa(lp377
F490.0
aF414.0000000000003
aa(lp378
F491.31839629430374
aF420.27905195293124
aa(lp379
F492.8731179211313
aF426.5333233564306
aa(lp380
F494.6627649562786
aF432.7381314585723
aa(lp381
F496.6850103322821
aF438.8689887164856
aa(lp382
F498.9366090222909
aF444.90169943749515
aa(lp383
F501.41341084670495
aF450.81245526846783
aa(lp384
F504.1103768520389
aF456.5779291565076
aa(lp385
F507.0215991973681
aF462.17536741017153
aa(lp386
F510.14032446987915
aF467.5826794978999
aa(lp387
F513.4589803375031
aF472.77852522924724
aa(lp388
F516.9692054334528
aF477.74239897486916
aa(lp389
F520.6618823547152
aF482.45471059286876
aa(lp390
F524.5271736442787
aF486.89686274214125
aa(lp391
F528.5545606150788
aF491.0513242775792
aa(lp392
F532.7328848624517
aF494.9016994374948
aa(lp393
F537.0503923012604
aF498.4327925502017
aa(lp394
F541.494779553897
aF501.6306680043864
aa(lp395
F546.0532425060958
aF504.4827052466021
aa(lp396
F550.7125268389193
aF506.9776485888251
aa(lp397
F555.4589803375034
aF509.1056516295154
aa(lp398
F560.2786067701087
aF510.85831611286306
aa(lp399
F565.1571211248566
aF512.2287250728689
aa(lp400
F570.0800059861415
aF513.2114701314478
aa(lp401
F575.0325688282412
aF513.8026728428272
aa(lp402
F580.0000000000002
aF514.0
aa(lp403
F584.9674311717589
aF513.8026728428272
aa(lp404
F589.9199940138584
aF513.2114701314478
aa(lp405
F594.8428788751434
aF512.2287250728689
aa(lp406
F599.7213932298914
aF510.858316112863
aa(lp407
F604.5410196624968
aF509.10565162951536
aa(lp408
F609.2874731610808
aF506.97764858882505
aa(lp409
F613.9467574939042
aF504.482705246602
aa(lp410
F618.505220446103
aF501.6306680043863
aa(lp411
F622.94960769874
aF498.43279255020127
aa(lp412
F627.2671151375484
aF494.9016994374947
aa(lp413
F631.4454393849217
aF491.05132427757866
aa(lp414
F635.4728263557213
aF486.89686274214114
aa(lp415
F639.3381176452847
aF482.45471059286865
aa(lp416
F643.0307945665472
aF477.74239897486905
aa(lp417
F646.541019662497
aF472.7785252292471
aa(lp418
F649.859675530121
aF467.5826794978998
aa(lp419
F652.9784008026319
aF462.17536741017136
aa(lp420
F655.8896231479611
aF456.5779291565075
aa(lp421
F658.5865891532951
aF450.8124552684677
aa(lp422
F661.0633909777093
aF444.90169943749436
aa(lp423
F663.3149896677179
aF438.86898871648543
aa(lp424
F665.3372350437213
aF432.7381314585721
aa(lp425
F667.1268820788686
aF426.53332335643046
aa(lp426
F668.6816037056963
aF420.27905195293107
aa(lp427
F670.0
aF414.0000000000001
aa(lp428
F671.0816037056964
aF407.7209480470684
aa(lp429
F671.9268820788686
aF401.46667664356977
aa(lp430
F672.5372350437214
aF395.26186854142736
aa(lp431
F672.9149896677178
aF389.13101128351406
aa(lp432
F673.0633909777092
aF383.0983005625052
aa(lp433
F672.986589153295
aF377.18754473153183
aa(lp434
F672.6896231479611
aF371.42207084349275
aa(lp435
F672.1784008026317
aF365.8246325898282
aa(lp436
F671.4596755301209
aF360.4173205021004
aa(lp437
F670.5410196624968
aF355.2214747707525
aa(lp438
F669.4307945665473
aF350.2576010251311
aa(lp439
F668.1381176452846
aF345.545289407131
aa(lp440
F666.6728263557214
aF341.103137257859
aa(lp441
F665.0454393849213
aF336.948675722421
aa(lp442
F663.2671151375482
aF333.098300562505
aa(lp443
F661.3496076987398
aF329.5672074497985
aa(lp444
F659.3052204461027
aF326.3693319956135
aa(lp445
F657.1467574939044
aF323.51729475339806
aa(lp446
F654.8874731610805
aF321.0223514111748
aa(lp447
F652.5410196624969
aF318.89434837048464
aa(lp448
F650.121393229891
aF317.1416838871368
aa(lp449
F647.6428788751435
aF315.7712749271312
aa(lp450
F645.1199940138582
aF314.7885298685522
aa(lp451
F642.5674311717585
aF314.1973271571728
aa(lp452
F640.0
aF314.0
aa(lp453
F637.4325688282408
aF314.1973271571729
aa(lp454
F634.8800059861417
aF314.78852986855225
aa(lp455
F632.3571211248563
aF315.7712749271312
aa(lp456
F629.8786067701087
aF317.1416838871369
aa(lp457
F627.458980337503
aF318.89434837048475
aa(lp458
F625.1125268389193
aF321.0223514111748
aa(lp459
F622.8532425060955
aF323.5172947533981
aa(lp460
F620.6947795538969
aF326.3693319956139
aa(lp461
F618.6503923012601
aF329.56720744979856
aa(lp462
F616.7328848624514
aF333.09830056250553
aa(lp463
F614.9545606150785
aF336.9486757224211
aa(lp464
F613.3271736442784
aF341.1031372578591
aa(lp465
F611.8618823547154
aF345.5452894071311
aa(lp466
F610.5692054334525
aF350.25760102513124
aa(lp467
F609.4589803375031
aF355.2214747707526
aa(lp468
F608.540324469879
aF360.4173205021005
aa(lp469
F607.8215991973682
aF365.8246325898283
aa(lp470
F607.3103768520389
aF371.42207084349286
aa(lp471
F607.0134108467048
aF377.1875447315326
aa(lp472
F606.9366090222908
aF383.0983005625053
aa(lp473
F607.085010332282
aF389.1310112835149
aa(lp474
F607.4627649562786
aF395.26186854142753
aa(lp475
F608.0731179211314
aF401.4666766435699
aa(lp476
F608.9183962943036
aF407.7209480470686
aa(lp477
F610.0
aF414.0000000000002
aa(lp478
F611.3183962943036
aF420.2790519529312
aa(lp479
F612.8731179211313
aF426.53332335643057
aa(lp480
F614.6627649562788
aF432.7381314585729
aa(lp481
F616.6850103322821
aF438.8689887164856
aa(lp482
F618.9366090222909
aF444.90169943749515
aa(lp483
F621.4134108467049
aF450.81245526846783
aa(lp484
F624.1103768520389
aF456.5779291565076
aa(lp485
F627.0215991973682
aF462.1753674101715
aa(lp486
F630.1403244698791
aF467.5826794978999
aa(lp487
F633.4589803375031
aF472.77852522924724
aa(lp488
F636.9692054334527
aF477.74239897486916
aa(lp489
F640.6618823547152
aF482.4547105928687
aa(lp490
F644.5271736442787
aF486.89686274214125
aa(lp491
F648.5545606150788
aF491.0513242775792
aa(lp492
F652.7328848624517
aF494.9016994374948
aa(lp493
F657.0503923012603
aF498.4327925502017
aa(lp494
F661.494779553897
aF501.6306680043864
aa(lp495
F666.0532425060958
aF504.4827052466021
aa(lp496
F670.7125268389192
aF506.9776485888251
aa(lp497
F675.4589803375032
aF509.1056516295154
aa(lp498
F680.2786067701086
aF510.85831611286306
aa(lp499
F685.1571211248566
aF512.2287250728689
aa(lp500
F690.080005986142
aF513.2114701314479
aa(lp501
F695.0325688282412
aF513.8026728428272
aa(lp502
F700.0000000000002
aF514.0
aa(lp503
F704.9674311717588
aF513.8026728428272
aa(lp504
F709.9199940138584
aF513.2114701314478
aa(lp505
F714.8428788751435
aF512.2287250728689
aa(lp506
F719.7213932298914
aF510.858316112863
aa(lp507
F724.5410196624968
aF509.10565162951536
aa(lp508
F729.2874731610807
aF506.97764858882505
aa(lp509
F733.9467574939042
aF504.48270524660205
aa(lp510
F738.5052204461031
aF501.6306680043863
aa(lp511
F742.94960769874
aF498.43279255020127
aa(lp512
F747.2671151375484
aF494.9016994374947
aa(lp513
F751.4454393849212
aF491.05132427757917
aa(lp514
F755.4728263557213
aF486.89686274214114
aa(lp515
F759.3381176452848
aF482.45471059286865
aa(lp516
F763.0307945665472
aF477.74239897486905
aa(lp517
F766.541019662497
aF472.7785252292471
aa(lp518
F769.8596755301207
aF467.5826794978998
aa(lp519
F772.9784008026319
aF462.17536741017136
aa(lp520
F775.8896231479612
aF456.5779291565075
aa(lp521
F778.5865891532951
aF450.8124552684677
aa(lp522
F781.0633909777091
aF444.90169943749504
aa(lp523
F783.3149896677178
aF438.86898871648543
aa(lp524
F785.3372350437213
aF432.7381314585721
aa(lp525
F787.1268820788687
aF426.53332335643046
aa(lp526
F788.6816037056963
aF420.27905195293107
aa(lp527
F790.0
aF414.0000000000001
aa(lp528
F791.0816037056962
aF407.7209480470685
aa(lp529
F791.9268820788686
aF401.46667664356977
aa(lp530
F792.5372350437214
aF395.2618685414274
aa(lp531
F792.9149896677179
aF389.1310112835148
aa(lp532
F793.0633909777092
aF383.0983005625052
aa(lp533
F792.9865891532951
aF377.1875447315325
aa(lp534
F792.6896231479611
aF371.42207084349275
aa(lp535
F792.1784008026317
aF365.8246325898282
aa(lp536
F791.4596755301209
aF360.41732050210044
aa(lp537
F790.5410196624968
aF355.2214747707525
aa(lp538
F789.4307945665473
aF350.2576010251311
aa(lp539
F788.1381176452846
aF345.545289407131
aa(lp540
F786.6728263557214
aF341.10313725785903
aa(lp541
F785.0454393849213
aF336.948675722421
aa(lp542
F783.2671151375486
aF333.0983005625054
aa(lp543
F781.3496076987398
aF329.5672074497985
aa(lp544
F779.3052204461027
aF326.3693319956135
aa(lp545
F777.1467574939044
aF323.51729475339806
aa(lp546
F774.8874731610805
aF321.0223514111748
aa(lp547
F772.5410196624969
aF318.8943483704847
aa(lp548
F770.121393229891
aF317.1416838871368
aa(lp549
F767.6428788751435
aF315.7712749271312
aa(lp550
F765.1199940138582
aF314.7885298685522
aa(lp551
F762.5674311717589
aF314.1973271571729
aa(lp552
F760.0
aF314.0
aa(lp553
F757.4325688282413
aF314.1973271571728
aa(lp554
F754.8800059861418
aF314.78852986855225
aa(lp555
F752.3571211248563
aF315.7712749271312
aa(lp556
F749.8786067701087
aF317.1416838871369
aa(lp557
F747.458980337503
aF318.8943483704847
aa(lp558
F745.1125268389194
aF321.0223514111748
aa(lp559
F742.8532425060955
aF323.5172947533981
aa(lp560
F740.6947795538972
aF326.36933199561355
aa(lp561
F738.6503923012601
aF329.5672074497985
aa(lp562
F736.7328848624518
aF333.0983005625051
aa(lp563
F734.9545606150785
aF336.94867572242106
aa(lp564
F733.3271736442786
aF341.1031372578591
aa(lp565
F731.8618823547154
aF345.54528940713107
aa(lp566
F730.5692054334525
aF350.25760102513124
aa(lp567
F729.4589803375032
aF355.2214747707526
aa(lp568
F728.540324469879
aF360.4173205021005
aa(lp569
F727.8215991973682
aF365.8246325898283
aa(lp570
F727.3103768520389
aF371.42207084349286
aa(lp571
F727.0134108467049
aF377.18754473153194
aa(lp572
F726.9366090222908
aF383.0983005625053
aa(lp573
F727.0850103322821
aF389.13101128351417
aa(lp574
F727.4627649562786
aF395.26186854142753
aa(lp575
F728.0731179211314
aF401.4666766435699
aa(lp576
F728.9183962943036
aF407.7209480470686
aa(lp577
F730.0
aF414.0000000000002
aa(lp578
F731.3183962943036
aF420.2790519529312
aa(lp579
F732.8731179211313
aF426.53332335643057
aa(lp580
F734.6627649562787
aF432.73813145857224
aa(lp581
F736.6850103322821
aF438.86898871648555
aa(lp582
F738.9366090222907
aF444.90169943749447
aa(lp583
F741.4134108467049
aF450.81245526846783
aa(lp584
F744.1103768520389
aF456.57792915650754
aa(lp585
F747.0215991973682
aF462.1753674101715
aa(lp586
F750.1403244698791
aF467.5826794978999
aa(lp587
F753.4589803375031
aF472.7785252292472
aa(lp588
F756.9692054334527
aF477.7423989748691
aa(lp589
F760.6618823547152
aF482.4547105928687
aa(lp590
F764.5271736442787
aF486.89686274214125
aa(lp591
F768.5545606150785
aF491.0513242775787
aa(lp592
F772.7328848624517
aF494.90169943749476
aa(lp593
F777.0503923012603
aF498.4327925502017
aa(lp594
F781.494779553897
aF501.63066800438634
aa(lp595
F786.0532425060958
aF504.4827052466021
aa(lp596
F790.7125268389192
aF506.9776485888251
aa(lp597
F795.4589803375032
aF509.1056516295154
aa(lp598
F800.2786067701086
aF510.85831611286306
aa(lp599
F805.1571211248565
aF512.2287250728689
aa(lp600
F810.0800059861416
aF513.2114701314478
aa(lp601
F815.0325688282412
aF513.8026728428272
aa(lp602
F819.9999999999998
aF514.0
aa(lp603
F824.9674311717588
aF513.8026728428272
aa(lp604
F829.9199940138584
aF513.2114701314478
aa(lp605
F834.8428788751435
aF512.2287250728689
aa(lp606
F839.7213932298914
aF510.85831611286306
aa(lp607
F844.5410196624968
aF509.10565162951536
aa(lp608
F849.2874731610807
aF506.9776485888251
aa(lp609
F853.9467574939042
aF504.48270524660205
aa(lp610
F858.505220446103
aF501.6306680043863
aa(lp611
F862.9496076987396
aF498.43279255020167
aa(lp612
F867.2671151375484
aF494.9016994374947
aa(lp613
F871.4454393849214
aF491.0513242775787
aa(lp614
F875.4728263557213
aF486.8968627421412
aa(lp615
F879.3381176452848
aF482.45471059286865
aa(lp616
F883.0307945665472
aF477.74239897486905
aa(lp617
F886.5410196624969
aF472.7785252292471
aa(lp618
F889.8596755301207
aF467.5826794978998
aa(lp619
F892.9784008026319
aF462.1753674101714
aa(lp620
F895.8896231479612
aF456.5779291565075
aa(lp621
F898.5865891532951
aF450.8124552684677
aa(lp622
F901.0633909777091
aF444.90169943749504
aa(lp623
F903.3149896677178
aF438.8689887164855
aa(lp624
F905.3372350437213
aF432.7381314585721
aa(lp625
F907.1268820788687
aF426.5333233564305
aa(lp626
F908.6816037056963
aF420.27905195293107
aa(lp627
F910.0
aF414.00000000000017
aa(lp628
F911.0816037056962
aF407.7209480470685
aa(lp629
F911.9268820788686
aF401.46667664356977
aa(lp630
F912.5372350437214
aF395.2618685414274
aa(lp631
F912.9149896677179
aF389.1310112835148
aa(lp632
F913.0633909777092
aF383.09830056250524
aa(lp633
F912.986589153295
aF377.1875447315319
aa(lp634
F912.6896231479611
aF371.42207084349275
aa(lp635
F912.1784008026318
aF365.82463258982824
aa(lp636
F911.4596755301209
aF360.41732050210044
aa(lp637
F910.5410196624968
aF355.22147477075254
aa(lp638
F909.4307945665473
aF350.2576010251312
aa(lp639
F908.1381176452846
aF345.545289407131
aa(lp640
F906.6728263557214
aF341.10313725785903
aa(lp641
F905.0454393849213
aF336.94867572242106
aa(lp642
F903.2671151375486
aF333.0983005625055
aa(lp643
F901.3496076987398
aF329.5672074497985
aa(lp644
F899.3052204461027
aF326.3693319956135
aa(lp645
F897.1467574939044
aF323.5172947533981
aa(lp646
F894.8874731610805
aF321.0223514111748
aa(lp647
F892.541019662497
aF318.8943483704847
aa(lp648
F890.1213932298912
aF317.1416838871369
aa(lp649
F887.6428788751435
aF315.7712749271312
aa(lp650
F885.1199940138582
aF314.7885298685522
aa(lp651
F882.5674311717589
aF314.1973271571729
aa(lp652
F880.0
aF314.0
aa(lp653
F877.432568828241
aF314.1973271571729
aa(lp654
F874.8800059861418
aF314.78852986855225
aa(lp655
F872.3571211248563
aF315.7712749271312
aa(lp656
F869.8786067701087
aF317.1416838871369
aa(lp657
F867.458980337503
aF318.8943483704847
aa(lp658
F865.1125268389194
aF321.0223514111748
aa(lp659
F862.8532425060955
aF323.5172947533981
aa(lp660
F860.6947795538972
aF326.3693319956135
aa(lp661
F858.6503923012601
aF329.5672074497985
aa(lp662
F856.7328848624514
aF333.0983005625055
aa(lp663
F854.9545606150785
aF336.94867572242106
aa(lp664
F853.3271736442786
aF341.1031372578591
aa(lp665
F851.8618823547154
aF345.54528940713107
aa(lp666
F850.5692054334525
aF350.25760102513124
aa(lp667
F849.4589803375032
aF355.2214747707526
aa(lp668
F848.540324469879
aF360.4173205021005
aa(lp669
F847.8215991973682
aF365.8246325898283
aa(lp670
F847.3103768520389
aF371.4220708434928
aa(lp671
F847.0134108467049
aF377.18754473153194
aa(lp672
F846.9366090222908
aF383.0983005625053
aa(lp673
F847.085010332282
aF389.13101128351485
aa(lp674
F847.4627649562786
aF395.2618685414275
aa(lp675
F848.0731179211314
aF401.4666766435698
aa(lp676
F848.9183962943036
aF407.72094804706853
aa(lp677
F850.0
aF414.00000000000017
aa(lp678
F851.3183962943036
aF420.2790519529311
aa(lp679
F852.8731179211313
aF426.53332335643057
aa(lp680
F854.6627649562787
aF432.7381314585722
aa(lp681
F856.6850103322821
aF438.86898871648555
aa(lp682
F858.9366090222909
aF444.9016994374951
aa(lp683
F861.4134108467049
aF450.8124552684678
aa(lp684
F864.1103768520388
aF456.57792915650754
aa(lp685
F867.0215991973682
aF462.1753674101715
aa(lp686
F870.1403244698791
aF467.58267949789985
aa(lp687
F873.4589803375031
aF472.7785252292472
aa(lp688
F876.9692054334527
aF477.7423989748691
aa(lp689
F880.6618823547152
aF482.4547105928687
aa(lp690
F884.5271736442787
aF486.8968627421412
aa(lp691
F888.5545606150785
aF491.0513242775787
aa(lp692
F892.7328848624517
aF494.90169943749476
aa(lp693
F897.0503923012603
aF498.43279255020167
aa(lp694
F901.494779553897
aF501.63066800438634
aa(lp695
F906.0532425060958
aF504.48270524660205
aa(lp696
F910.7125268389192
aF506.9776485888251
aa(lp697
F915.4589803375032
aF509.1056516295154
aa(lp698
F920.2786067701086
aF510.85831611286306
aa(lp699
F925.1571211248565
aF512.2287250728689
aa(lp700
F930.0800059861416
aF513.2114701314478
aa(lp701
F935.0325688282412
aF513.8026728428272
aa(lp702
F940.0000000000002
aF514.0
aa(lp703
F944.9674311717587
aF513.8026728428272
aa(lp704
F949.9199940138584
aF513.2114701314478
aa(lp705
F954.8428788751435
aF512.2287250728689
aa(lp706
F959.7213932298914
aF510.85831611286306
aa(lp707
F964.5410196624968
aF509.1056516295154
aa(lp708
F969.2874731610807
aF506.9776485888251
aa(lp709
F973.9467574939042
aF504.48270524660205
aa(lp710
F978.505220446103
aF501.6306680043863
aa(lp711
F982.94960769874
aF498.43279255020127
aa(lp712
F987.2671151375484
aF494.9016994374947
aa(lp713
F991.4454393849214
aF491.0513242775787
aa(lp714
F995.4728263557213
aF486.8968627421412
aa(lp715
F999.3381176452848
aF482.45471059286865
aa(lp716
F1003.0307945665472
aF477.74239897486905
aa(lp717
F1006.5410196624969
aF472.7785252292472
aa(lp718
F1009.8596755301207
aF467.58267949789985
aa(lp719
F1012.9784008026318
aF462.1753674101714
aa(lp720
F1015.8896231479612
aF456.57792915650754
aa(lp721
F1018.5865891532951
aF450.8124552684678
aa(lp722
F1021.0633909777093
aF444.9016994374944
aa(lp723
F1023.3149896677178
aF438.8689887164855
aa(lp724
F1025.3372350437214
aF432.7381314585722
aa(lp725
F1027.1268820788687
aF426.5333233564305
aa(lp726
F1028.6816037056963
aF420.2790519529311
aa(lp727
F1030.0
aF414.00000000000017
aa(lp728
F1031.0816037056961
aF407.72094804706853
aa(lp729
F1031.9268820788686
aF401.4666766435698
aa(lp730
F1032.5372350437212
aF395.2618685414275
aa(lp731
F1032.9149896677177
aF389.1310112835141
aa(lp732
F1033.063390977709
aF383.09830056250524
aa(lp733
F1032.986589153295
aF377.1875447315319
aa(lp734
F1032.6896231479611
aF371.4220708434928
aa(lp735
F1032.1784008026318
aF365.82463258982824
aa(lp736
F1031.4596755301209
aF360.41732050210044
aa(lp737
F1030.5410196624969
aF355.22147477075254
aa(lp738
F1029.4307945665473
aF350.2576010251312
aa(lp739
F1028.1381176452846
aF345.54528940713107
aa(lp740
F1026.6728263557216
aF341.10313725785903
aa(lp741
F1025.0454393849213
aF336.94867572242106
aa(lp742
F1023.2671151375482
aF333.0983005625051
aa(lp743
F1021.3496076987398
aF329.5672074497985
aa(lp744
F1019.3052204461028
aF326.3693319956135
aa(lp745
F1017.1467574939045
aF323.5172947533981
aa(lp746
F1014.8874731610805
aF321.0223514111748
aa(lp747
F1012.541019662497
aF318.8943483704847
aa(lp748
F1010.1213932298912
aF317.1416838871369
aa(lp749
F1007.6428788751437
aF315.7712749271312
aa(lp750
F1005.1199940138582
aF314.78852986855225
aa(lp751
F1002.5674311717585
aF314.1973271571728
aa(lp752
F1000.0
aF314.0
aa(lp753
F997.432568828241
aF314.1973271571729
aa(lp754
F994.8800059861418
aF314.78852986855225
aa(lp755
F992.3571211248563
aF315.7712749271312
aa(lp756
F989.8786067701087
aF317.1416838871369
aa(lp757
F987.458980337503
aF318.8943483704847
aa(lp758
F985.1125268389194
aF321.0223514111748
aa(lp759
F982.8532425060955
aF323.5172947533981
aa(lp760
F980.6947795538972
aF326.3693319956135
aa(lp761
F978.6503923012601
aF329.5672074497985
aa(lp762
F976.7328848624514
aF333.0983005625055
aa(lp763
F974.9545606150785
aF336.94867572242106
aa(lp764
F973.3271736442786
aF341.10313725785903
aa(lp765
F971.8618823547154
aF345.54528940713107
aa(lp766
F970.5692054334526
aF350.2576010251312
aa(lp767
F969.4589803375032
aF355.22147477075254
aa(lp768
F968.540324469879
aF360.41732050210044
aa(lp769
F967.8215991973682
aF365.82463258982824
aa(lp770
F967.3103768520388
aF371.4220708434928
aa(lp771
F967.0134108467048
aF377.18754473153257
aa(lp772
F966.9366090222908
aF383.09830056250524
aa(lp773
F967.0850103322819
aF389.13101128351485
aa(lp774
F967.4627649562788
aF395.2618685414275
aa(lp775
F968.0731179211313
aF401.4666766435698
aa(lp776
F968.9183962943036
aF407.72094804706853
aa(lp777
F970.0
aF414.00000000000017
aa(lp778
F971.3183962943035
aF420.2790519529311
aa(lp779
F972.8731179211314
aF426.5333233564305
aa(lp780
F974.6627649562786
aF432.73813145857287
aa(lp781
F976.6850103322821
aF438.8689887164855
aa(lp782
F978.9366090222909
aF444.9016994374951
aa(lp783
F981.4134108467047
aF450.8124552684678
aa(lp784
F984.1103768520389
aF456.57792915650754
aa(lp785
F987.021599197368
aF462.1753674101714
aa(lp786
F990.1403244698791
aF467.58267949789985
aa(lp787
F993.4589803375031
aF472.7785252292472
aa(lp788
F996.9692054334525
aF477.74239897486905
aa(lp789
F1000.6618823547153
aF482.45471059286865
aa(lp790
F1004.5271736442786
aF486.8968627421412
aa(lp791
F1008.5545606150788
aF491.05132427757917
aa(lp792
F1012.7328848624516
aF494.9016994374947
aa(lp793
F1017.0503923012602
aF498.43279255020167
aa(lp794
F1021.4947795538972
aF501.63066800438634
aa(lp795
F1026.0532425060958
aF504.48270524660205
aa(lp796
F1030.7125268389193
aF506.9776485888251
aa(lp797
F1035.4589803375034
aF509.1056516295154
aa(lp798
F1040.2786067701084
aF510.85831611286306
aa(lp799
F1045.1571211248568
aF512.2287250728689
aa(lp800
F1050.080005986142
aF513.2114701314479
aa(lp801
F1055.0325688282412
aF513.8026728428272
aa(lp802
F1060.0000000000002
aF514.0
aa(lp803
F1064.9674311717586
aF513.8026728428272
aa(lp804
F1069.9199940138585
aF513.2114701314478
aa(lp805
F1074.8428788751432
aF512.2287250728689
aa(lp806
F1079.7213932298914
aF510.85831611286306
aa(lp807
F1084.5410196624966
aF509.1056516295154
aa(lp808
F1089.2874731610805
aF506.9776485888251
aa(lp809
F1093.9467574939042
aF504.48270524660205
aa(lp810
F1098.5052204461028
aF501.63066800438634
aa(lp811
F1102.94960769874
aF498.4327925502013
aa(lp812
F1107.2671151375484
aF494.90169943749476
aa(lp813
F1111.4454393849214
aF491.0513242775787
aa(lp814
F1115.4728263557213
aF486.8968627421412
aa(lp815
F1119.3381176452847
aF482.4547105928687
aa(lp816
F1123.0307945665472
aF477.7423989748691
aa(lp817
F1126.5410196624969
aF472.7785252292472
aa(lp818
F1129.8596755301207
aF467.58267949789985
aa(lp819
F1132.978400802632
aF462.1753674101715
aa(lp820
F1135.8896231479612
aF456.5779291565069
aa(lp821
F1138.586589153295
aF450.8124552684678
aa(lp822
F1141.0633909777093
aF444.9016994374944
aa(lp823
F1143.3149896677178
aF438.86898871648555
aa(lp824
F1145.3372350437214
aF432.7381314585722
aa(lp825
F1147.1268820788687
aF426.53332335643057
aa(lp826
F1148.6816037056963
aF420.2790519529311
aa(lp827
F1150.0
aF414.00000000000017
aa(lp828
F1151.0816037056961
aF407.72094804706853
aa(lp829
F1151.9268820788689
aF401.4666766435698
aa(lp830
F1152.5372350437212
aF395.2618685414275
aa(lp831
F1152.9149896677177
aF389.13101128351417
aa(lp832
F1153.0633909777093
aF383.0983005625053
aa(lp833
F1152.9865891532947
aF377.18754473153194
aa(lp834
F1152.6896231479614
aF371.4220708434928
aa(lp835
F1152.1784008026316
aF365.8246325898283
aa(lp836
F1151.4596755301209
aF360.4173205021005
aa(lp837
F1150.5410196624969
aF355.2214747707526
aa(lp838
F1149.4307945665473
aF350.25760102513124
aa(lp839
F1148.1381176452846
aF345.54528940713107
aa(lp840
F1146.672826355721
aF341.1031372578586
aa(lp841
F1145.0454393849213
aF336.94867572242106
aa(lp842
F1143.2671151375482
aF333.0983005625051
aa(lp843
F1141.3496076987396
aF329.5672074497985
aa(lp844
F1139.3052204461028
aF326.3693319956135
aa(lp845
F1137.1467574939043
aF323.5172947533981
aa(lp846
F1134.8874731610806
aF321.0223514111748
aa(lp847
F1132.5410196624969
aF318.8943483704847
aa(lp848
F1130.121393229891
aF317.1416838871369
aa(lp849
F1127.6428788751432
aF315.77127492713106
aa(lp850
F1125.119994013858
aF314.78852986855225
aa(lp851
F1122.5674311717585
aF314.1973271571728
aa(lp852
F1120.0
aF314.0
aa(lp853
F1117.4325688282408
aF314.1973271571729
aa(lp854
F1114.880005986142
aF314.7885298685522
aa(lp855
F1112.3571211248563
aF315.7712749271312
aa(lp856
F1109.8786067701087
aF317.1416838871369
aa(lp857
F1107.4589803375031
aF318.8943483704847
aa(lp858
F1105.1125268389194
aF321.0223514111748
aa(lp859
F1102.8532425060955
aF323.5172947533981
aa(lp860
F1100.6947795538968
aF326.36933199561383
aa(lp861
F1098.6503923012601
aF329.5672074497985
aa(lp862
F1096.7328848624516
aF333.0983005625055
aa(lp863
F1094.9545606150787
aF336.94867572242106
aa(lp864
F1093.3271736442784
aF341.10313725785903
aa(lp865
F1091.8618823547154
aF345.545289407131
aa(lp866
F1090.5692054334525
aF350.2576010251312
aa(lp867
F1089.4589803375031
aF355.22147477075254
aa(lp868
F1088.5403244698791
aF360.41732050210044
aa(lp869
F1087.821599197368
aF365.82463258982887
aa(lp870
F1087.3103768520386
aF371.42207084349275
aa(lp871
F1087.0134108467048
aF377.1875447315325
aa(lp872
F1086.936609022291
aF383.09830056250524
aa(lp873
F1087.085010332282
aF389.1310112835148
aa(lp874
F1087.4627649562785
aF395.2618685414274
aa(lp875
F1088.0731179211311
aF401.46667664356977
aa(lp876
F1088.9183962943036
aF407.7209480470685
aa(lp877
F1090.0
aF414.00000000000017
aa(lp878
F1091.3183962943037
aF420.27905195293107
aa(lp879
F1092.873117921131
aF426.5333233564305
aa(lp880
F1094.6627649562786
aF432.73813145857287
aa(lp881
F1096.685010332282
aF438.8689887164855
aa(lp882
F1098.936609022291
aF444.90169943749504
aa(lp883
F1101.413410846705
aF450.8124552684677
aa(lp884
F1104.1103768520388
aF456.5779291565075
aa(lp885
F1107.021599197368
aF462.1753674101714
aa(lp886
F1110.140324469879
aF467.5826794978998
aa(lp887
F1113.4589803375031
aF472.7785252292471
aa(lp888
F1116.9692054334528
aF477.74239897486905
aa(lp889
F1120.6618823547153
aF482.4547105928692
aa(lp890
F1124.5271736442787
aF486.8968627421412
aa(lp891
F1128.5545606150788
aF491.05132427757917
aa(lp892
F1132.7328848624516
aF494.9016994374947
aa(lp893
F1137.0503923012604
aF498.43279255020167
aa(lp894
F1141.494779553897
aF501.6306680043863
aa(lp895
F1146.0532425060956
aF504.48270524660205
aa(lp896
F1150.712526838919
aF506.9776485888251
aa(lp897
F1155.4589803375031
aF509.10565162951536
aa(lp898
F1160.278606770109
aF510.85831611286324
aa(lp899
F1165.1571211248565
aF512.2287250728689
aa(lp900
F1170.080005986142
aF513.2114701314479
aa(lp901
F1175.0325688282412
aF513.8026728428272
aa(lp902
F1180.0000000000002
aF514.0
aa(lp903
F1184.9674311717588
aF513.8026728428272
aa(lp904
F1189.9199940138583
aF513.2114701314478
aa(lp905
F1194.8428788751432
aF512.2287250728689
aa(lp906
F1199.7213932298914
aF510.85831611286306
aa(lp907
F1204.5410196624966
aF509.1056516295154
aa(lp908
F1209.2874731610807
aF506.9776485888251
aa(lp909
F1213.9467574939044
aF504.48270524660177
aa(lp910
F1218.5052204461028
aF501.63066800438634
aa(lp911
F1222.94960769874
aF498.4327925502013
aa(lp912
F1227.2671151375484
aF494.90169943749476
aa(lp913
F1231.4454393849217
aF491.0513242775787
aa(lp914
F1235.472826355721
aF486.89686274214125
aa(lp915
F1239.3381176452847
aF482.4547105928687
aa(lp916
F1243.0307945665472
aF477.7423989748691
aa(lp917
F1246.5410196624969
aF472.7785252292472
aa(lp918
F1249.8596755301212
aF467.5826794978993
aa(lp919
F1252.9784008026318
aF462.1753674101715
aa(lp920
F1255.8896231479612
aF456.5779291565069
aa(lp921
F1258.586589153295
aF450.81245526846783
aa(lp922
F1261.0633909777093
aF444.90169943749447
aa(lp923
F1263.314989667718
aF438.86898871648555
aa(lp924
F1265.3372350437212
aF432.73813145857224
aa(lp925
F1267.1268820788687
aF426.53332335643057
aa(lp926
F1268.6816037056963
aF420.2790519529312
aa(lp927
F1270.0
aF414.0000000000002
aa(lp928
F1271.0816037056964
aF407.7209480470686
aa(lp929
F1271.9268820788684
aF401.46667664356914
aa(lp930
F1272.5372350437212
aF395.26186854142753
aa(lp931
F1272.9149896677177
aF389.13101128351417
aa(lp932
F1273.0633909777093
aF383.0983005625053
aa(lp933
F1272.986589153295
aF377.18754473153194
aa(lp934
F1272.6896231479611
aF371.42207084349286
aa(lp935
F1272.1784008026316
aF365.8246325898283
aa(lp936
F1271.4596755301209
aF360.4173205021005
aa(lp937
F1270.5410196624969
aF355.2214747707526
aa(lp938
F1269.4307945665473
aF350.25760102513067
aa(lp939
F1268.1381176452846
aF345.54528940713107
aa(lp940
F1266.672826355721
aF341.1031372578586
aa(lp941
F1265.0454393849213
aF336.94867572242106
aa(lp942
F1263.2671151375482
aF333.0983005625051
aa(lp943
F1261.3496076987399
aF329.5672074497985
aa(lp944
F1259.3052204461026
aF326.36933199561355
aa(lp945
F1257.1467574939043
aF323.5172947533981
aa(lp946
F1254.8874731610806
aF321.0223514111748
aa(lp947
F1252.5410196624969
aF318.8943483704847
aa(lp948
F1250.1213932298913
aF317.1416838871369
aa(lp949
F1247.6428788751432
aF315.77127492713106
aa(lp950
F1245.119994013858
aF314.78852986855225
aa(lp951
F1242.5674311717585
aF314.1973271571728
aa(lp952
F1240.0
aF314.0
aa(lp953
F1237.432568828241
aF314.1973271571729
aa(lp954
F1234.8800059861417
aF314.7885298685522
aa(lp955
F1232.3571211248563
aF315.7712749271312
aa(lp956
F1229.8786067701087
aF317.1416838871368
aa(lp957
F1227.4589803375031
aF318.8943483704847
aa(lp958
F1225.1125268389192
aF321.022351411175
aa(lp959
F1222.8532425060955
aF323.51729475339806
aa(lp960
F1220.6947795538968
aF326.36933199561383
aa(lp961
F1218.6503923012601
aF329.5672074497985
aa(lp962
F1216.7328848624516
aF333.0983005625054
aa(lp963
F1214.9545606150787
aF336.948675722421
aa(lp964
F1213.3271736442784
aF341.10313725785903
aa(lp965
F1211.8618823547154
aF345.545289407131
aa(lp966
F1210.5692054334525
aF350.2576010251311
aa(lp967
F1209.458980337503
aF355.22147477075305
aa(lp968
F1208.5403244698791
aF360.41732050210044
aa(lp969
F1207.821599197368
aF365.8246325898288
aa(lp970
F1207.3103768520386
aF371.42207084349275
aa(lp971
F1207.0134108467048
aF377.1875447315325
aa(lp972
F1206.936609022291
aF383.0983005625052
aa(lp973
F1207.085010332282
aF389.1310112835148
aa(lp974
F1207.4627649562785
aF395.2618685414274
aa(lp975
F1208.0731179211311
aF401.46667664356977
aa(lp976
F1208.9183962943036
aF407.7209480470685
aa(lp977
F1210.0
aF414.0000000000001
aa(lp978
F1211.3183962943037
aF420.27905195293175
aa(lp979
F1212.873117921131
aF426.53332335643046
aa(lp980
F1214.6627649562786
aF432.7381314585728
aa(lp981
F1216.685010332282
aF438.86898871648543
aa(lp982
F1218.936609022291
aF444.90169943749504
aa(lp983
F1221.413410846705
aF450.8124552684677
aa(lp984
F1224.1103768520388
aF456.5779291565075
aa(lp985
F1227.021599197368
aF462.17536741017136
aa(lp986
F1230.140324469879
aF467.5826794978998
aa(lp987
F1233.4589803375034
aF472.7785252292477
aa(lp988
F1236.9692054334528
aF477.74239897486905
aa(lp989
F1240.6618823547153
aF482.45471059286916
aa(lp990
F1244.5271736442785
aF486.89686274214114
aa(lp991
F1248.5545606150788
aF491.05132427757917
aa(lp992
F1252.7328848624516
aF494.9016994374947
aa(lp993
F1257.0503923012604
aF498.43279255020167
aa(lp994
F1261.494779553897
aF501.6306680043863
aa(lp995
F1266.0532425060956
aF504.48270524660205
aa(lp996
F1270.712526838919
aF506.97764858882505
aa(lp997
F1275.4589803375031
aF509.10565162951536
aa(lp998
F1280.278606770109
aF510.85831611286324
aa(lp999
F1285.1571211248563
aF512.2287250728689
aa(lp1000
F1290.080005986142
aF513.2114701314479
aa(lp1001
F1295.0325688282412
aF513.8026728428272
aaa.